target datalayout = "e-m:e-p270:32:32-p271:32:32-p272:64:64-i64:64-i128:128-f80:128-n8:16:32:64-S128"
target triple = "x86_64-unknown-linux-gnu"

%"struct.re2::PatchList" = type { i32, i32 }
%"class.re2::Compiler" = type <{ %"class.re2::Regexp::Walker", ptr, i8, [3 x i8], i32, i8, [7 x i8], %"class.re2::PODArray", i32, i32, i64, %"class.absl::debian2::flat_hash_map", %"struct.re2::Frag", i32, [4 x i8] }>
%"class.re2::Regexp::Walker" = type { ptr, %"class.std::stack", i8, i32 }
%"class.std::stack" = type { %"class.std::deque" }
%"class.std::deque" = type { %"class.std::_Deque_base" }
%"class.std::_Deque_base" = type { %"struct.std::_Deque_base<re2::WalkState<re2::Frag>, std::allocator<re2::WalkState<re2::Frag>>>::_Deque_impl" }
%"struct.std::_Deque_base<re2::WalkState<re2::Frag>, std::allocator<re2::WalkState<re2::Frag>>>::_Deque_impl" = type { %"struct.std::_Deque_base<re2::WalkState<re2::Frag>, std::allocator<re2::WalkState<re2::Frag>>>::_Deque_impl_data" }
%"struct.std::_Deque_base<re2::WalkState<re2::Frag>, std::allocator<re2::WalkState<re2::Frag>>>::_Deque_impl_data" = type { ptr, i64, %"struct.std::_Deque_iterator", %"struct.std::_Deque_iterator" }
%"struct.std::_Deque_iterator" = type { ptr, ptr, ptr, ptr }
%"class.re2::PODArray" = type { %"class.std::unique_ptr" }
%"class.std::unique_ptr" = type { %"struct.std::__uniq_ptr_data" }
%"struct.std::__uniq_ptr_data" = type { %"class.std::__uniq_ptr_impl" }
%"class.std::__uniq_ptr_impl" = type { %"class.std::tuple" }
%"class.std::tuple" = type { %"struct.std::_Tuple_impl" }
%"struct.std::_Tuple_impl" = type { %"struct.std::_Tuple_impl.0", %"struct.std::_Head_base.1" }
%"struct.std::_Tuple_impl.0" = type { %"struct.std::_Head_base" }
%"struct.std::_Head_base" = type { %"struct.re2::PODArray<re2::Prog::Inst>::Deleter" }
%"struct.re2::PODArray<re2::Prog::Inst>::Deleter" = type { i32 }
%"struct.std::_Head_base.1" = type { ptr }
%"class.absl::debian2::flat_hash_map" = type { %"class.absl::debian2::container_internal::raw_hash_map" }
%"class.absl::debian2::container_internal::raw_hash_map" = type { %"class.absl::debian2::container_internal::raw_hash_set" }
%"class.absl::debian2::container_internal::raw_hash_set" = type { ptr, ptr, i64, i64, %"class.absl::debian2::container_internal::CompressedTuple" }
%"class.absl::debian2::container_internal::CompressedTuple" = type { %"struct.absl::debian2::container_internal::internal_compressed_tuple::CompressedTupleImpl" }
%"struct.absl::debian2::container_internal::internal_compressed_tuple::CompressedTupleImpl" = type { %"struct.absl::debian2::container_internal::internal_compressed_tuple::Storage" }
%"struct.absl::debian2::container_internal::internal_compressed_tuple::Storage" = type { i64 }
%"struct.re2::Frag" = type <{ i32, %"struct.re2::PatchList", i8, [3 x i8] }>
%"class.re2::Prog::Inst" = type { i32, %union.anon.27 }
%union.anon.27 = type { i32 }

@_ZN3re2L14kNullPatchListE = internal constant %"struct.re2::PatchList" zeroinitializer, align 4

; Function Attrs: mustprogress nounwind uwtable
define linkonce_odr noundef nonnull align 8 dereferenceable(8) ptr @_ZNSt10_Head_baseILm0EPN3re24Prog4InstELb0EE7_M_headERKS4_(ptr noundef nonnull align 8 dereferenceable(8) %__b) #1 comdat align 2 {
entry:
  %__b.addr = alloca ptr, align 8
  store ptr %__b, ptr %__b.addr, align 8
  %0 = load ptr, ptr %__b.addr, align 8
  %_M_head_impl = getelementptr inbounds %"struct.std::_Head_base.1", ptr %0, i32 0, i32 0
  ret ptr %_M_head_impl
}

; Function Attrs: mustprogress nounwind uwtable
define linkonce_odr noundef nonnull align 8 dereferenceable(8) ptr @_ZNSt11_Tuple_implILm0EJPN3re24Prog4InstENS0_8PODArrayIS2_E7DeleterEEE7_M_headERKS7_(ptr noundef nonnull align 8 dereferenceable(16) %__t) #1 comdat align 2 {
entry:
  %__t.addr = alloca ptr, align 8
  store ptr %__t, ptr %__t.addr, align 8
  %0 = load ptr, ptr %__t.addr, align 8
  %add.ptr = getelementptr inbounds i8, ptr %0, i64 8
  %call = call noundef nonnull align 8 dereferenceable(8) ptr @_ZNSt10_Head_baseILm0EPN3re24Prog4InstELb0EE7_M_headERKS4_(ptr noundef nonnull align 8 dereferenceable(8) %add.ptr) #17
  ret ptr %call
}

; Function Attrs: mustprogress nounwind uwtable
define linkonce_odr noundef nonnull align 8 dereferenceable(8) ptr @_ZSt12__get_helperILm0EPN3re24Prog4InstEJNS0_8PODArrayIS2_E7DeleterEEERKT0_RKSt11_Tuple_implIXT_EJS7_DpT1_EE(ptr noundef nonnull align 8 dereferenceable(16) %__t) #1 comdat {
entry:
  %__t.addr = alloca ptr, align 8
  store ptr %__t, ptr %__t.addr, align 8
  %0 = load ptr, ptr %__t.addr, align 8
  %call = call noundef nonnull align 8 dereferenceable(8) ptr @_ZNSt11_Tuple_implILm0EJPN3re24Prog4InstENS0_8PODArrayIS2_E7DeleterEEE7_M_headERKS7_(ptr noundef nonnull align 8 dereferenceable(16) %0) #17
  ret ptr %call
}

; Function Attrs: mustprogress nounwind uwtable
define linkonce_odr noundef nonnull align 8 dereferenceable(8) ptr @_ZSt3getILm0EJPN3re24Prog4InstENS0_8PODArrayIS2_E7DeleterEEERKNSt13tuple_elementIXT_ESt5tupleIJDpT0_EEE4typeERKSB_(ptr noundef nonnull align 8 dereferenceable(16) %__t) #1 comdat {
entry:
  %__t.addr = alloca ptr, align 8
  store ptr %__t, ptr %__t.addr, align 8
  %0 = load ptr, ptr %__t.addr, align 8
  %call = call noundef nonnull align 8 dereferenceable(8) ptr @_ZSt12__get_helperILm0EPN3re24Prog4InstEJNS0_8PODArrayIS2_E7DeleterEEERKT0_RKSt11_Tuple_implIXT_EJS7_DpT1_EE(ptr noundef nonnull align 8 dereferenceable(16) %0) #17
  ret ptr %call
}

; Function Attrs: mustprogress nounwind uwtable
define linkonce_odr noundef ptr @_ZNKSt15__uniq_ptr_implIN3re24Prog4InstENS0_8PODArrayIS2_E7DeleterEE6_M_ptrEv(ptr noundef nonnull align 8 dereferenceable(16) %this) #1 comdat align 2 {
entry:
  %this.addr = alloca ptr, align 8
  store ptr %this, ptr %this.addr, align 8
  %this1 = load ptr, ptr %this.addr, align 8
  %_M_t = getelementptr inbounds %"class.std::__uniq_ptr_impl", ptr %this1, i32 0, i32 0
  %call = call noundef nonnull align 8 dereferenceable(8) ptr @_ZSt3getILm0EJPN3re24Prog4InstENS0_8PODArrayIS2_E7DeleterEEERKNSt13tuple_elementIXT_ESt5tupleIJDpT0_EEE4typeERKSB_(ptr noundef nonnull align 8 dereferenceable(16) %_M_t) #17
  %0 = load ptr, ptr %call, align 8
  ret ptr %0
}

; Function Attrs: mustprogress nounwind uwtable
define linkonce_odr noundef ptr @_ZNKSt10unique_ptrIA_N3re24Prog4InstENS0_8PODArrayIS2_E7DeleterEE3getEv(ptr noundef nonnull align 8 dereferenceable(16) %this) #1 comdat align 2 {
entry:
  %this.addr = alloca ptr, align 8
  store ptr %this, ptr %this.addr, align 8
  %this1 = load ptr, ptr %this.addr, align 8
  %_M_t = getelementptr inbounds %"class.std::unique_ptr", ptr %this1, i32 0, i32 0
  %call = call noundef ptr @_ZNKSt15__uniq_ptr_implIN3re24Prog4InstENS0_8PODArrayIS2_E7DeleterEE6_M_ptrEv(ptr noundef nonnull align 8 dereferenceable(16) %_M_t) #17
  ret ptr %call
}

; Function Attrs: mustprogress nounwind uwtable
define linkonce_odr noundef nonnull align 4 dereferenceable(8) ptr @_ZNKSt10unique_ptrIA_N3re24Prog4InstENS0_8PODArrayIS2_E7DeleterEEixEm(ptr noundef nonnull align 8 dereferenceable(16) %this, i64 noundef %__i) #1 comdat align 2 {
entry:
  %this.addr = alloca ptr, align 8
  %__i.addr = alloca i64, align 8
  store ptr %this, ptr %this.addr, align 8
  store i64 %__i, ptr %__i.addr, align 8
  %this1 = load ptr, ptr %this.addr, align 8
  br label %do.body

do.body:                                          ; preds = %entry
  br label %do.end

do.end:                                           ; preds = %do.body
  %call = call noundef ptr @_ZNKSt10unique_ptrIA_N3re24Prog4InstENS0_8PODArrayIS2_E7DeleterEE3getEv(ptr noundef nonnull align 8 dereferenceable(16) %this1) #17
  %0 = load i64, ptr %__i.addr, align 8
  %arrayidx = getelementptr inbounds %"class.re2::Prog::Inst", ptr %call, i64 %0
  ret ptr %arrayidx
}

; Function Attrs: mustprogress nounwind uwtable
define linkonce_odr void @_ZN3re24FragC2Ev(ptr noundef nonnull align 4 dereferenceable(13) %this) unnamed_addr #1 comdat align 2 {
entry:
  %this.addr = alloca ptr, align 8
  store ptr %this, ptr %this.addr, align 8
  %this1 = load ptr, ptr %this.addr, align 8
  %begin = getelementptr inbounds %"struct.re2::Frag", ptr %this1, i32 0, i32 0
  store i32 0, ptr %begin, align 4
  %end = getelementptr inbounds %"struct.re2::Frag", ptr %this1, i32 0, i32 1
  call void @llvm.memcpy.p0.p0.i64(ptr align 4 %end, ptr align 4 @_ZN3re2L14kNullPatchListE, i64 8, i1 false)
  %nullable = getelementptr inbounds %"struct.re2::Frag", ptr %this1, i32 0, i32 2
  store i8 0, ptr %nullable, align 4
  ret void
}

; Function Attrs: mustprogress nounwind uwtable
define linkonce_odr void @_ZN3re24FragC2EjNS_9PatchListEb(ptr noundef nonnull align 4 dereferenceable(13) %this, i32 noundef %begin, i64 %end.coerce, i1 noundef zeroext %nullable) unnamed_addr #1 comdat align 2 {
entry:
  %end = alloca %"struct.re2::PatchList", align 4
  %this.addr = alloca ptr, align 8
  %begin.addr = alloca i32, align 4
  %nullable.addr = alloca i8, align 1
  store i64 %end.coerce, ptr %end, align 4
  store ptr %this, ptr %this.addr, align 8
  store i32 %begin, ptr %begin.addr, align 4
  %frombool = zext i1 %nullable to i8
  store i8 %frombool, ptr %nullable.addr, align 1
  %this1 = load ptr, ptr %this.addr, align 8
  %begin2 = getelementptr inbounds %"struct.re2::Frag", ptr %this1, i32 0, i32 0
  %0 = load i32, ptr %begin.addr, align 4
  store i32 %0, ptr %begin2, align 4
  %end3 = getelementptr inbounds %"struct.re2::Frag", ptr %this1, i32 0, i32 1
  call void @llvm.memcpy.p0.p0.i64(ptr align 4 %end3, ptr align 4 %end, i64 8, i1 false)
  %nullable4 = getelementptr inbounds %"struct.re2::Frag", ptr %this1, i32 0, i32 2
  %1 = load i8, ptr %nullable.addr, align 1
  %tobool = trunc i8 %1 to i1
  %frombool5 = zext i1 %tobool to i8
  store i8 %frombool5, ptr %nullable4, align 4
  ret void
}

; Function Attrs: mustprogress uwtable
define linkonce_odr noundef nonnull align 4 dereferenceable(8) ptr @_ZNK3re28PODArrayINS_4Prog4InstEEixEi(ptr noundef nonnull align 8 dereferenceable(16) %this, i32 noundef %pos) #0 comdat align 2 {
entry:
  %this.addr = alloca ptr, align 8
  %pos.addr = alloca i32, align 4
  store ptr %this, ptr %this.addr, align 8
  store i32 %pos, ptr %pos.addr, align 4
  %this1 = load ptr, ptr %this.addr, align 8
  %ptr_ = getelementptr inbounds %"class.re2::PODArray", ptr %this1, i32 0, i32 0
  %0 = load i32, ptr %pos.addr, align 4
  %conv = sext i32 %0 to i64
  %call = call noundef nonnull align 4 dereferenceable(8) ptr @_ZNKSt10unique_ptrIA_N3re24Prog4InstENS0_8PODArrayIS2_E7DeleterEEixEm(ptr noundef nonnull align 8 dereferenceable(16) %ptr_, i64 noundef %conv)
  ret ptr %call
}

; Function Attrs: mustprogress uwtable
define { i64, i64 } @_ZN3re28Compiler7NoMatchEv(ptr noundef nonnull align 8 dereferenceable(212) %this) #0 align 2 {
entry:
  %retval = alloca %"struct.re2::Frag", align 4
  %this.addr = alloca ptr, align 8
  store ptr %this, ptr %this.addr, align 8
  call void @_ZN3re24FragC2Ev(ptr noundef nonnull align 4 dereferenceable(13) %retval)
  %0 = load { i64, i64 }, ptr %retval, align 4
  ret { i64, i64 } %0
}

; Function Attrs: mustprogress uwtable
define { i64, i64 } @_ZN3re28Compiler5MatchEi(ptr noundef nonnull align 8 dereferenceable(212) %this, i32 noundef %match_id) #0 align 2 {
entry:
  %retval = alloca %"struct.re2::Frag", align 4
  %this.addr = alloca ptr, align 8
  %match_id.addr = alloca i32, align 4
  %id = alloca i32, align 4
  %agg.tmp = alloca %"struct.re2::PatchList", align 4
  store ptr %this, ptr %this.addr, align 8
  store i32 %match_id, ptr %match_id.addr, align 4
  %this1 = load ptr, ptr %this.addr, align 8
  %call = call noundef i32 @_ZN3re28Compiler9AllocInstEi(ptr noundef nonnull align 8 dereferenceable(212) %this1, i32 noundef 1)
  store i32 %call, ptr %id, align 4
  %0 = load i32, ptr %id, align 4
  %cmp = icmp slt i32 %0, 0
  br i1 %cmp, label %if.then, label %if.end

if.then:                                          ; preds = %entry
  %call2 = call { i64, i64 } @_ZN3re28Compiler7NoMatchEv(ptr noundef nonnull align 8 dereferenceable(212) %this1)
  %1 = getelementptr inbounds { i64, i64 }, ptr %retval, i32 0, i32 0
  %2 = extractvalue { i64, i64 } %call2, 0
  store i64 %2, ptr %1, align 4
  %3 = getelementptr inbounds { i64, i64 }, ptr %retval, i32 0, i32 1
  %4 = extractvalue { i64, i64 } %call2, 1
  store i64 %4, ptr %3, align 4
  br label %return

if.end:                                           ; preds = %entry
  %inst_ = getelementptr inbounds %"class.re2::Compiler", ptr %this1, i32 0, i32 7
  %5 = load i32, ptr %id, align 4
  %call3 = call noundef nonnull align 4 dereferenceable(8) ptr @_ZNK3re28PODArrayINS_4Prog4InstEEixEi(ptr noundef nonnull align 8 dereferenceable(16) %inst_, i32 noundef %5)
  %6 = load i32, ptr %match_id.addr, align 4
  call void @_ZN3re24Prog4Inst9InitMatchEi(ptr noundef nonnull align 4 dereferenceable(8) %call3, i32 noundef %6)
  %7 = load i32, ptr %id, align 4
  call void @llvm.memcpy.p0.p0.i64(ptr align 4 %agg.tmp, ptr align 4 @_ZN3re2L14kNullPatchListE, i64 8, i1 false)
  %8 = load i64, ptr %agg.tmp, align 4
  call void @_ZN3re24FragC2EjNS_9PatchListEb(ptr noundef nonnull align 4 dereferenceable(13) %retval, i32 noundef %7, i64 %8, i1 noundef zeroext false)
  br label %return

return:                                           ; preds = %if.end, %if.then
  %9 = load { i64, i64 }, ptr %retval, align 4
  ret { i64, i64 } %9
}